; Function Attrs: mustprogress nofree norecurse nosync nounwind willreturn memory(read, inaccessiblemem: none) uwtable
define internal range(i32 -1, 2) i32 @_sort_job_by_time_end(ptr noundef readonly captures(none) %0, ptr noundef readonly captures(none) %1) #5 {
  %.val = load ptr, ptr %0, align 8
  %3 = getelementptr i8, ptr %.val, i64 8
  %.val.val = load ptr, ptr %3, align 8
  %4 = load ptr, ptr %1, align 8
  %5 = getelementptr inbounds nuw i8, ptr %4, i64 8
  %6 = load ptr, ptr %5, align 8
  %7 = getelementptr inbounds nuw i8, ptr %.val.val, i64 272
  %8 = load i64, ptr %7, align 8
  %9 = getelementptr inbounds nuw i8, ptr %6, i64 272
  %10 = load i64, ptr %9, align 8
  %.0.i = tail call range(i32 -1, 2) i32 @llvm.scmp.i32.i64(i64 %8, i64 %10)
  %.b3 = load i1, ptr @reverse_order, align 1
  %11 = sub nsw i32 0, %.0.i
  %spec.select = select i1 %.b3, i32 %11, i32 %.0.i
  ret i32 %spec.select
}